target datalayout = "e-m:e-p270:32:32-p271:32:32-p272:64:64-i64:64-i128:128-f80:128-n8:16:32:64-S128"
target triple = "x86_64-pc-linux-gnu"

; Function Attrs: nounwind uwtable
define i32 @decadd(ptr noundef %0, ptr noundef %1, ptr noundef %2) #0 {
  %4 = alloca i32, align 4
  %5 = alloca ptr, align 8
  %6 = alloca ptr, align 8
  %7 = alloca ptr, align 8
  store ptr %0, ptr %5, align 8
  store ptr %1, ptr %6, align 8
  store ptr %2, ptr %7, align 8
  %8 = call ptr @__errno_location() #8
  store i32 0, ptr %8, align 4
  %9 = load ptr, ptr %5, align 8
  %10 = load ptr, ptr %6, align 8
  %11 = load ptr, ptr %7, align 8
  %12 = call i32 @deccall3(ptr noundef %9, ptr noundef %10, ptr noundef %11, ptr noundef @PGTYPESnumeric_add)
  %13 = call ptr @__errno_location() #8
  %14 = load i32, ptr %13, align 4
  %15 = icmp eq i32 %14, 301
  br i1 %15, label %16, label %17

16:                                               ; preds = %3
  store i32 -1200, ptr %4, align 4
  br label %28

17:                                               ; preds = %3
  %18 = call ptr @__errno_location() #8
  %19 = load i32, ptr %18, align 4
  %20 = icmp eq i32 %19, 304
  br i1 %20, label %21, label %22

21:                                               ; preds = %17
  store i32 -1201, ptr %4, align 4
  br label %28

22:                                               ; preds = %17
  %23 = call ptr @__errno_location() #8
  %24 = load i32, ptr %23, align 4
  %25 = icmp ne i32 %24, 0
  br i1 %25, label %26, label %27

26:                                               ; preds = %22
  store i32 -1, ptr %4, align 4
  br label %28

27:                                               ; preds = %22
  store i32 0, ptr %4, align 4
  br label %28

28:                                               ; preds = %27, %26, %21, %16
  %29 = load i32, ptr %4, align 4
  ret i32 %29
}