; Function Attrs: nounwind uwtable
define range(i32 -1201, 1) i32 @decadd(ptr noundef %0, ptr noundef %1, ptr noundef %2) local_unnamed_addr #0 {
  %4 = tail call ptr @__errno_location() #15
  store i32 0, ptr %4, align 4
  %5 = tail call fastcc i32 @deccall3(ptr noundef %0, ptr noundef %1, ptr noundef %2, ptr noundef nonnull @PGTYPESnumeric_add)
  %6 = load i32, ptr %4, align 4
  switch i32 %6, label %8 [
    i32 301, label %10
    i32 304, label %7
    i32 0, label %9
  ]

7:                                                ; preds = %3
  br label %10

8:                                                ; preds = %3
  br label %10

9:                                                ; preds = %3
  br label %10

10:                                               ; preds = %3, %9, %8, %7
  %.0 = phi i32 [ -1201, %7 ], [ -1, %8 ], [ 0, %9 ], [ -1200, %3 ]
  ret i32 %.0
}